target datalayout = "e-m:e-p270:32:32-p271:32:32-p272:64:64-i64:64-i128:128-f80:128-n8:16:32:64-S128"
target triple = "x86_64-pc-linux-gnu"

%struct.ident_t = type { i32, i32, i32, i32, ptr }
%"class.std::vector.0" = type { %"struct.std::_Vector_base.1" }
%"struct.std::_Vector_base.1" = type { %"struct.std::_Vector_base<float, std::allocator<float>>::_Vector_impl" }
%"struct.std::_Vector_base<float, std::allocator<float>>::_Vector_impl" = type { %"struct.std::_Vector_base<float, std::allocator<float>>::_Vector_impl_data" }
%"struct.std::_Vector_base<float, std::allocator<float>>::_Vector_impl_data" = type { ptr, ptr, ptr }
%"struct.faiss::AdditiveQuantizer" = type <{ %"struct.faiss::Quantizer", i64, %"class.std::vector", %"class.std::vector.0", %"class.std::vector", i64, i64, i64, i8, i8, i8, [5 x i8], %"class.std::vector.0", %"struct.faiss::IndexFlat1D", %"class.std::vector.0", %"class.std::vector.0", i64, i32, float, float, [4 x i8] }>
%"struct.faiss::Quantizer" = type { ptr, i64, i64 }
%"class.std::vector" = type { %"struct.std::_Vector_base" }
%"struct.std::_Vector_base" = type { %"struct.std::_Vector_base<unsigned long, std::allocator<unsigned long>>::_Vector_impl" }
%"struct.std::_Vector_base<unsigned long, std::allocator<unsigned long>>::_Vector_impl" = type { %"struct.std::_Vector_base<unsigned long, std::allocator<unsigned long>>::_Vector_impl_data" }
%"struct.std::_Vector_base<unsigned long, std::allocator<unsigned long>>::_Vector_impl_data" = type { ptr, ptr, ptr }
%"struct.faiss::IndexFlat1D" = type { %"struct.faiss::IndexFlatL2", i8, %"class.std::vector.10" }
%"struct.faiss::IndexFlatL2" = type { %"struct.faiss::IndexFlat", %"class.std::vector.0" }
%"struct.faiss::IndexFlat" = type { %"struct.faiss::IndexFlatCodes" }
%"struct.faiss::IndexFlatCodes" = type { %"struct.faiss::Index.base", i64, %"class.std::vector.5" }
%"struct.faiss::Index.base" = type <{ ptr, i32, [4 x i8], i64, i8, i8, [2 x i8], i32, float }>
%"class.std::vector.5" = type { %"struct.std::_Vector_base.6" }
%"struct.std::_Vector_base.6" = type { %"struct.std::_Vector_base<unsigned char, std::allocator<unsigned char>>::_Vector_impl" }
%"struct.std::_Vector_base<unsigned char, std::allocator<unsigned char>>::_Vector_impl" = type { %"struct.std::_Vector_base<unsigned char, std::allocator<unsigned char>>::_Vector_impl_data" }
%"struct.std::_Vector_base<unsigned char, std::allocator<unsigned char>>::_Vector_impl_data" = type { ptr, ptr, ptr }
%"class.std::vector.10" = type { %"struct.std::_Vector_base.11" }
%"struct.std::_Vector_base.11" = type { %"struct.std::_Vector_base<long, std::allocator<long>>::_Vector_impl" }
%"struct.std::_Vector_base<long, std::allocator<long>>::_Vector_impl" = type { %"struct.std::_Vector_base<long, std::allocator<long>>::_Vector_impl_data" }
%"struct.std::_Vector_base<long, std::allocator<long>>::_Vector_impl_data" = type { ptr, ptr, ptr }
%"struct.faiss::ProductAdditiveQuantizer" = type { %"struct.faiss::AdditiveQuantizer.base", i64, %"class.std::vector.15" }
%"struct.faiss::AdditiveQuantizer.base" = type <{ %"struct.faiss::Quantizer", i64, %"class.std::vector", %"class.std::vector.0", %"class.std::vector", i64, i64, i64, i8, i8, i8, [5 x i8], %"class.std::vector.0", %"struct.faiss::IndexFlat1D", %"class.std::vector.0", %"class.std::vector.0", i64, i32, float, float }>
%"class.std::vector.15" = type { %"struct.std::_Vector_base.16" }
%"struct.std::_Vector_base.16" = type { %"struct.std::_Vector_base<faiss::AdditiveQuantizer *, std::allocator<faiss::AdditiveQuantizer *>>::_Vector_impl" }
%"struct.std::_Vector_base<faiss::AdditiveQuantizer *, std::allocator<faiss::AdditiveQuantizer *>>::_Vector_impl" = type { %"struct.std::_Vector_base<faiss::AdditiveQuantizer *, std::allocator<faiss::AdditiveQuantizer *>>::_Vector_impl_data" }
%"struct.std::_Vector_base<faiss::AdditiveQuantizer *, std::allocator<faiss::AdditiveQuantizer *>>::_Vector_impl_data" = type { ptr, ptr, ptr }

@1 = private unnamed_addr constant %struct.ident_t { i32 0, i32 514, i32 0, i32 22, ptr @0 }, align 8

; Function Attrs: mustprogress nounwind uwtable
define linkonce_odr noundef ptr @_ZNKSt6vectorIfSaIfEE11_M_data_ptrIfEEPT_S4_(ptr noundef nonnull align 8 dereferenceable(24) %0, ptr noundef %1) #1 comdat align 2 {
  %3 = alloca ptr, align 8
  %4 = alloca ptr, align 8
  store ptr %0, ptr %3, align 8, !tbaa !142
  store ptr %1, ptr %4, align 8, !tbaa !11
  %5 = load ptr, ptr %4, align 8, !tbaa !11
  ret ptr %5
}

; Function Attrs: mustprogress nounwind uwtable
define linkonce_odr noundef nonnull align 8 dereferenceable(8) ptr @_ZNKSt6vectorImSaImEEixEm(ptr noundef nonnull align 8 dereferenceable(24) %0, i64 noundef %1) #1 comdat align 2 {
  %3 = alloca ptr, align 8
  %4 = alloca i64, align 8
  store ptr %0, ptr %3, align 8, !tbaa !91
  store i64 %1, ptr %4, align 8, !tbaa !9
  %5 = load ptr, ptr %3, align 8
  %6 = getelementptr inbounds nuw %"struct.std::_Vector_base", ptr %5, i32 0, i32 0
  %7 = getelementptr inbounds nuw %"struct.std::_Vector_base<unsigned long, std::allocator<unsigned long>>::_Vector_impl_data", ptr %6, i32 0, i32 0
  %8 = load ptr, ptr %7, align 8, !tbaa !116
  %9 = load i64, ptr %4, align 8, !tbaa !9
  %10 = getelementptr inbounds nuw i64, ptr %8, i64 %9
  ret ptr %10
}

; Function Attrs: mustprogress nounwind uwtable
define linkonce_odr noundef ptr @_ZNKSt6vectorIfSaIfEE4dataEv(ptr noundef nonnull align 8 dereferenceable(24) %0) #1 comdat align 2 {
  %2 = alloca ptr, align 8
  store ptr %0, ptr %2, align 8, !tbaa !142
  %3 = load ptr, ptr %2, align 8
  %4 = getelementptr inbounds nuw %"struct.std::_Vector_base.1", ptr %3, i32 0, i32 0
  %5 = getelementptr inbounds nuw %"struct.std::_Vector_base<float, std::allocator<float>>::_Vector_impl_data", ptr %4, i32 0, i32 0
  %6 = load ptr, ptr %5, align 8, !tbaa !144
  %7 = call noundef ptr @_ZNKSt6vectorIfSaIfEE11_M_data_ptrIfEEPT_S4_(ptr noundef nonnull align 8 dereferenceable(24) %3, ptr noundef %6) #18
  ret ptr %7
}

; Function Attrs: mustprogress nounwind uwtable
define linkonce_odr noundef nonnull align 8 dereferenceable(8) ptr @_ZNKSt6vectorIPN5faiss17AdditiveQuantizerESaIS2_EEixEm(ptr noundef nonnull align 8 dereferenceable(24) %0, i64 noundef %1) #1 comdat align 2 {
  %3 = alloca ptr, align 8
  %4 = alloca i64, align 8
  store ptr %0, ptr %3, align 8, !tbaa !61
  store i64 %1, ptr %4, align 8, !tbaa !9
  %5 = load ptr, ptr %3, align 8
  %6 = getelementptr inbounds nuw %"struct.std::_Vector_base.16", ptr %5, i32 0, i32 0
  %7 = getelementptr inbounds nuw %"struct.std::_Vector_base<faiss::AdditiveQuantizer *, std::allocator<faiss::AdditiveQuantizer *>>::_Vector_impl_data", ptr %6, i32 0, i32 0
  %8 = load ptr, ptr %7, align 8, !tbaa !74
  %9 = load i64, ptr %4, align 8, !tbaa !9
  %10 = getelementptr inbounds nuw ptr, ptr %8, i64 %9
  ret ptr %10
}

; Function Attrs: noinline norecurse nounwind uwtable
define internal void @_ZNK5faiss24ProductAdditiveQuantizer15decode_unpackedEPKiPfml.omp_outlined(ptr noalias noundef %0, ptr noalias noundef %1, ptr noundef nonnull align 8 dereferenceable(8) %2, ptr noundef nonnull align 8 dereferenceable(8) %3, ptr noundef nonnull align 8 dereferenceable(8) %4, ptr noundef %5, ptr noundef nonnull align 8 dereferenceable(8) %6) #17 personality ptr @__gxx_personality_v0 {
  %8 = alloca ptr, align 8
  %9 = alloca ptr, align 8
  %10 = alloca ptr, align 8
  %11 = alloca ptr, align 8
  %12 = alloca ptr, align 8
  %13 = alloca ptr, align 8
  %14 = alloca ptr, align 8
  %15 = alloca i64, align 8
  %16 = alloca i64, align 8
  %17 = alloca i64, align 8
  %18 = alloca i64, align 8
  %19 = alloca i64, align 8
  %20 = alloca i64, align 8
  %21 = alloca i64, align 8
  %22 = alloca i32, align 4
  %23 = alloca i64, align 8
  %24 = alloca ptr, align 8
  %25 = alloca i64, align 8
  %26 = alloca i64, align 8
  %27 = alloca i64, align 8
  %28 = alloca i32, align 4
  %29 = alloca ptr, align 8
  %30 = alloca ptr, align 8
  %31 = alloca i32, align 4
  %32 = alloca i32, align 4
  %33 = alloca ptr, align 8
  store ptr %0, ptr %8, align 8, !tbaa !68
  store ptr %1, ptr %9, align 8, !tbaa !68
  store ptr %2, ptr %10, align 8, !tbaa !94
  store ptr %3, ptr %11, align 8, !tbaa !180
  store ptr %4, ptr %12, align 8, !tbaa !94
  store ptr %5, ptr %13, align 8, !tbaa !4
  store ptr %6, ptr %14, align 8, !tbaa !145
  %34 = load ptr, ptr %10, align 8, !tbaa !94
  %35 = load ptr, ptr %11, align 8, !tbaa !180
  %36 = load ptr, ptr %12, align 8, !tbaa !94
  %37 = load ptr, ptr %13, align 8, !tbaa !4
  %38 = load ptr, ptr %14, align 8, !tbaa !145
  call void @llvm.lifetime.start.p0(i64 8, ptr %15) #18
  call void @llvm.lifetime.start.p0(i64 8, ptr %16) #18
  %39 = load i64, ptr %34, align 8, !tbaa !9
  store i64 %39, ptr %16, align 8, !tbaa !9
  call void @llvm.lifetime.start.p0(i64 8, ptr %17) #18
  %40 = load i64, ptr %16, align 8, !tbaa !9
  %41 = sub i64 %40, 0
  %42 = udiv i64 %41, 1
  %43 = sub i64 %42, 1
  store i64 %43, ptr %17, align 8, !tbaa !9
  call void @llvm.lifetime.start.p0(i64 8, ptr %18) #18
  store i64 0, ptr %18, align 8, !tbaa !9
  call void @llvm.lifetime.end.p0(i64 8, ptr %18) #18
  %44 = load i64, ptr %16, align 8, !tbaa !9
  %45 = icmp ult i64 0, %44
  br i1 %45, label %46, label %171

46:                                               ; preds = %7
  call void @llvm.lifetime.start.p0(i64 8, ptr %19) #18
  store i64 0, ptr %19, align 8, !tbaa !9
  call void @llvm.lifetime.start.p0(i64 8, ptr %20) #18
  %47 = load i64, ptr %17, align 8, !tbaa !9
  store i64 %47, ptr %20, align 8, !tbaa !9
  call void @llvm.lifetime.start.p0(i64 8, ptr %21) #18
  store i64 1, ptr %21, align 8, !tbaa !9
  call void @llvm.lifetime.start.p0(i64 4, ptr %22) #18
  store i32 0, ptr %22, align 4, !tbaa !56
  call void @llvm.lifetime.start.p0(i64 8, ptr %23) #18
  %48 = load ptr, ptr %8, align 8
  %49 = load i32, ptr %48, align 4, !tbaa !56
  call void @__kmpc_for_static_init_8u(ptr @1, i32 %49, i32 34, ptr %22, ptr %19, ptr %20, ptr %21, i64 1, i64 1)
  %50 = load i64, ptr %20, align 8, !tbaa !9
  %51 = load i64, ptr %17, align 8, !tbaa !9
  %52 = icmp ugt i64 %50, %51
  br i1 %52, label %53, label %55

53:                                               ; preds = %46
  %54 = load i64, ptr %17, align 8, !tbaa !9
  br label %57

55:                                               ; preds = %46
  %56 = load i64, ptr %20, align 8, !tbaa !9
  br label %57

57:                                               ; preds = %55, %53
  %58 = phi i64 [ %54, %53 ], [ %56, %55 ]
  store i64 %58, ptr %20, align 8, !tbaa !9
  %59 = load i64, ptr %19, align 8, !tbaa !9
  store i64 %59, ptr %15, align 8, !tbaa !9
  br label %60

60:                                               ; preds = %164, %57
  %61 = load i64, ptr %15, align 8, !tbaa !9
  %62 = load i64, ptr %20, align 8, !tbaa !9
  %63 = add i64 %62, 1
  %64 = icmp ult i64 %61, %63
  br i1 %64, label %66, label %65

65:                                               ; preds = %60
  br label %167

66:                                               ; preds = %60
  %67 = load i64, ptr %15, align 8, !tbaa !9
  %68 = mul i64 %67, 1
  %69 = add i64 0, %68
  store i64 %69, ptr %23, align 8, !tbaa !9
  call void @llvm.lifetime.start.p0(i64 8, ptr %24) #18
  %70 = load ptr, ptr %35, align 8, !tbaa !68
  %71 = load i64, ptr %23, align 8, !tbaa !9
  %72 = load i64, ptr %36, align 8, !tbaa !9
  %73 = mul nsw i64 %71, %72
  %74 = getelementptr inbounds i32, ptr %70, i64 %73
  store ptr %74, ptr %24, align 8, !tbaa !68
  call void @llvm.lifetime.start.p0(i64 8, ptr %25) #18
  store i64 0, ptr %25, align 8, !tbaa !9
  call void @llvm.lifetime.start.p0(i64 8, ptr %26) #18
  store i64 0, ptr %26, align 8, !tbaa !9
  call void @llvm.lifetime.start.p0(i64 8, ptr %27) #18
  store i64 0, ptr %27, align 8, !tbaa !9
  br label %75

75:                                               ; preds = %159, %66
  %76 = load i64, ptr %27, align 8, !tbaa !9
  %77 = getelementptr inbounds nuw %"struct.faiss::ProductAdditiveQuantizer", ptr %37, i32 0, i32 1
  %78 = load i64, ptr %77, align 8, !tbaa !46
  %79 = icmp ult i64 %76, %78
  br i1 %79, label %81, label %80

80:                                               ; preds = %75
  store i32 6, ptr %28, align 4
  call void @llvm.lifetime.end.p0(i64 8, ptr %27) #18
  br label %162

81:                                               ; preds = %75
  call void @llvm.lifetime.start.p0(i64 8, ptr %29) #18
  %82 = getelementptr inbounds nuw %"struct.faiss::ProductAdditiveQuantizer", ptr %37, i32 0, i32 2
  %83 = load i64, ptr %27, align 8, !tbaa !9
  %84 = call noundef nonnull align 8 dereferenceable(8) ptr @_ZNKSt6vectorIPN5faiss17AdditiveQuantizerESaIS2_EEixEm(ptr noundef nonnull align 8 dereferenceable(24) %82, i64 noundef %83) #18
  %85 = load ptr, ptr %84, align 8, !tbaa !53
  store ptr %85, ptr %29, align 8, !tbaa !53
  call void @llvm.lifetime.start.p0(i64 8, ptr %30) #18
  %86 = load ptr, ptr %38, align 8, !tbaa !11
  %87 = load i64, ptr %23, align 8, !tbaa !9
  %88 = getelementptr inbounds nuw %"struct.faiss::Quantizer", ptr %37, i32 0, i32 1
  %89 = load i64, ptr %88, align 8, !tbaa !55
  %90 = mul i64 %87, %89
  %91 = getelementptr inbounds nuw float, ptr %86, i64 %90
  %92 = load i64, ptr %26, align 8, !tbaa !9
  %93 = getelementptr inbounds nuw float, ptr %91, i64 %92
  store ptr %93, ptr %30, align 8, !tbaa !11
  call void @llvm.lifetime.start.p0(i64 4, ptr %31) #18
  store i32 0, ptr %31, align 4, !tbaa !56
  br label %94

94:                                               ; preds = %145, %81
  %95 = load i32, ptr %31, align 4, !tbaa !56
  %96 = sext i32 %95 to i64
  %97 = load ptr, ptr %29, align 8, !tbaa !53
  %98 = getelementptr inbounds nuw %"struct.faiss::AdditiveQuantizer", ptr %97, i32 0, i32 1
  %99 = load i64, ptr %98, align 8, !tbaa !66
  %100 = icmp ult i64 %96, %99
  br i1 %100, label %102, label %101

101:                                              ; preds = %94
  store i32 9, ptr %28, align 4
  call void @llvm.lifetime.end.p0(i64 4, ptr %31) #18
  br label %148

102:                                              ; preds = %94
  call void @llvm.lifetime.start.p0(i64 4, ptr %32) #18
  %103 = load ptr, ptr %24, align 8, !tbaa !68
  %104 = load i64, ptr %25, align 8, !tbaa !9
  %105 = load i32, ptr %31, align 4, !tbaa !56
  %106 = sext i32 %105 to i64
  %107 = add i64 %104, %106
  %108 = getelementptr inbounds nuw i32, ptr %103, i64 %107
  %109 = load i32, ptr %108, align 4, !tbaa !56
  store i32 %109, ptr %32, align 4, !tbaa !56
  call void @llvm.lifetime.start.p0(i64 8, ptr %33) #18
  %110 = getelementptr inbounds nuw %"struct.faiss::AdditiveQuantizer", ptr %37, i32 0, i32 3
  %111 = call noundef ptr @_ZNKSt6vectorIfSaIfEE4dataEv(ptr noundef nonnull align 8 dereferenceable(24) %110) #18
  %112 = load ptr, ptr %29, align 8, !tbaa !53
  %113 = getelementptr inbounds nuw %"struct.faiss::Quantizer", ptr %112, i32 0, i32 1
  %114 = load i64, ptr %113, align 8, !tbaa !55
  %115 = getelementptr inbounds nuw %"struct.faiss::AdditiveQuantizer", ptr %37, i32 0, i32 4
  %116 = load i64, ptr %25, align 8, !tbaa !9
  %117 = load i32, ptr %31, align 4, !tbaa !56
  %118 = sext i32 %117 to i64
  %119 = add i64 %116, %118
  %120 = call noundef nonnull align 8 dereferenceable(8) ptr @_ZNKSt6vectorImSaImEEixEm(ptr noundef nonnull align 8 dereferenceable(24) %115, i64 noundef %119) #18
  %121 = load i64, ptr %120, align 8, !tbaa !9
  %122 = load i32, ptr %32, align 4, !tbaa !56
  %123 = sext i32 %122 to i64
  %124 = add i64 %121, %123
  %125 = mul i64 %114, %124
  %126 = getelementptr inbounds nuw float, ptr %111, i64 %125
  store ptr %126, ptr %33, align 8, !tbaa !11
  %127 = load i32, ptr %31, align 4, !tbaa !56
  %128 = icmp eq i32 %127, 0
  br i1 %128, label %129, label %136

129:                                              ; preds = %102
  %130 = load ptr, ptr %30, align 8, !tbaa !11
  %131 = load ptr, ptr %33, align 8, !tbaa !11
  %132 = load ptr, ptr %29, align 8, !tbaa !53
  %133 = getelementptr inbounds nuw %"struct.faiss::Quantizer", ptr %132, i32 0, i32 1
  %134 = load i64, ptr %133, align 8, !tbaa !55
  %135 = mul i64 4, %134
  call void @llvm.memcpy.p0.p0.i64(ptr align 4 %130, ptr align 4 %131, i64 %135, i1 false)
  br label %144

136:                                              ; preds = %102
  %137 = load ptr, ptr %29, align 8, !tbaa !53
  %138 = getelementptr inbounds nuw %"struct.faiss::Quantizer", ptr %137, i32 0, i32 1
  %139 = load i64, ptr %138, align 8, !tbaa !55
  %140 = load ptr, ptr %30, align 8, !tbaa !11
  %141 = load ptr, ptr %33, align 8, !tbaa !11
  %142 = load ptr, ptr %30, align 8, !tbaa !11
  invoke void @_ZN5faiss8fvec_addEmPKfS1_Pf(i64 noundef %139, ptr noundef %140, ptr noundef %141, ptr noundef %142)
          to label %143 unwind label %172

143:                                              ; preds = %136
  br label %144

144:                                              ; preds = %143, %129
  call void @llvm.lifetime.end.p0(i64 8, ptr %33) #18
  call void @llvm.lifetime.end.p0(i64 4, ptr %32) #18
  br label %145

145:                                              ; preds = %144
  %146 = load i32, ptr %31, align 4, !tbaa !56
  %147 = add nsw i32 %146, 1
  store i32 %147, ptr %31, align 4, !tbaa !56
  br label %94, !llvm.loop !208

148:                                              ; preds = %101
  %149 = load ptr, ptr %29, align 8, !tbaa !53
  %150 = getelementptr inbounds nuw %"struct.faiss::AdditiveQuantizer", ptr %149, i32 0, i32 1
  %151 = load i64, ptr %150, align 8, !tbaa !66
  %152 = load i64, ptr %25, align 8, !tbaa !9
  %153 = add i64 %152, %151
  store i64 %153, ptr %25, align 8, !tbaa !9
  %154 = load ptr, ptr %29, align 8, !tbaa !53
  %155 = getelementptr inbounds nuw %"struct.faiss::Quantizer", ptr %154, i32 0, i32 1
  %156 = load i64, ptr %155, align 8, !tbaa !55
  %157 = load i64, ptr %26, align 8, !tbaa !9
  %158 = add i64 %157, %156
  store i64 %158, ptr %26, align 8, !tbaa !9
  call void @llvm.lifetime.end.p0(i64 8, ptr %30) #18
  call void @llvm.lifetime.end.p0(i64 8, ptr %29) #18
  br label %159

159:                                              ; preds = %148
  %160 = load i64, ptr %27, align 8, !tbaa !9
  %161 = add i64 %160, 1
  store i64 %161, ptr %27, align 8, !tbaa !9
  br label %75, !llvm.loop !209

162:                                              ; preds = %80
  call void @llvm.lifetime.end.p0(i64 8, ptr %26) #18
  call void @llvm.lifetime.end.p0(i64 8, ptr %25) #18
  call void @llvm.lifetime.end.p0(i64 8, ptr %24) #18
  br label %163

163:                                              ; preds = %162
  br label %164

164:                                              ; preds = %163
  %165 = load i64, ptr %15, align 8, !tbaa !9
  %166 = add i64 %165, 1
  store i64 %166, ptr %15, align 8, !tbaa !9
  br label %60

167:                                              ; preds = %65
  br label %168

168:                                              ; preds = %167
  %169 = load ptr, ptr %8, align 8
  %170 = load i32, ptr %169, align 4, !tbaa !56
  call void @__kmpc_for_static_fini(ptr @1, i32 %170)
  call void @llvm.lifetime.end.p0(i64 8, ptr %23) #18
  call void @llvm.lifetime.end.p0(i64 4, ptr %22) #18
  call void @llvm.lifetime.end.p0(i64 8, ptr %21) #18
  call void @llvm.lifetime.end.p0(i64 8, ptr %20) #18
  call void @llvm.lifetime.end.p0(i64 8, ptr %19) #18
  br label %171

171:                                              ; preds = %168, %7
  call void @llvm.lifetime.end.p0(i64 8, ptr %17) #18
  call void @llvm.lifetime.end.p0(i64 8, ptr %16) #18
  call void @llvm.lifetime.end.p0(i64 8, ptr %15) #18
  ret void

172:                                              ; preds = %136
  %173 = landingpad { ptr, i32 }
          catch ptr null
  %174 = extractvalue { ptr, i32 } %173, 0
  call void @__clang_call_terminate(ptr %174) #21
  unreachable
}