; Function Attrs: noinline norecurse nounwind uwtable
define internal void @_ZNK5faiss24ProductAdditiveQuantizer15decode_unpackedEPKiPfml.omp_outlined(ptr noalias noundef readonly captures(none) %0, ptr noalias readnone captures(none) %1, ptr noundef nonnull readonly align 8 captures(none) dereferenceable(8) %2, ptr noundef nonnull readonly align 8 captures(none) dereferenceable(8) %3, ptr noundef nonnull readonly align 8 captures(none) dereferenceable(8) %4, ptr noundef readonly captures(none) %5, ptr noundef nonnull readonly align 8 captures(none) dereferenceable(8) %6) #17 personality ptr @__gxx_personality_v0 {
  %8 = alloca i64, align 8
  %9 = alloca i64, align 8
  %10 = alloca i64, align 8
  %11 = alloca i32, align 4
  %12 = load i64, ptr %2, align 8, !tbaa !4
  %.not = icmp eq i64 %12, 0
  br i1 %.not, label %77, label %13

13:                                               ; preds = %7
  %14 = add i64 %12, -1
  call void @llvm.lifetime.start.p0(i64 8, ptr nonnull %8) #18
  store i64 0, ptr %8, align 8, !tbaa !4
  call void @llvm.lifetime.start.p0(i64 8, ptr nonnull %9) #18
  store i64 %14, ptr %9, align 8, !tbaa !4
  call void @llvm.lifetime.start.p0(i64 8, ptr nonnull %10) #18
  store i64 1, ptr %10, align 8, !tbaa !4
  call void @llvm.lifetime.start.p0(i64 4, ptr nonnull %11) #18
  store i32 0, ptr %11, align 4, !tbaa !60
  %15 = load i32, ptr %0, align 4, !tbaa !60
  call void @__kmpc_for_static_init_8u(ptr nonnull @1, i32 %15, i32 34, ptr nonnull %11, ptr nonnull %8, ptr nonnull %9, ptr nonnull %10, i64 1, i64 1)
  %16 = load i64, ptr %9, align 8, !tbaa !4
  %17 = call i64 @llvm.umin.i64(i64 %16, i64 %14)
  store i64 %17, ptr %9, align 8, !tbaa !4
  %18 = load i64, ptr %8, align 8, !tbaa !4
  %.not69 = icmp ugt i64 %18, %17
  br i1 %.not69, label %._crit_edge59, label %.lr.ph58

.lr.ph58:                                         ; preds = %13
  %19 = getelementptr inbounds nuw i8, ptr %5, i64 360
  %20 = getelementptr inbounds nuw i8, ptr %5, i64 368
  %21 = getelementptr inbounds nuw i8, ptr %5, i64 8
  %22 = getelementptr inbounds nuw i8, ptr %5, i64 56
  %23 = getelementptr inbounds nuw i8, ptr %5, i64 80
  %24 = load i64, ptr %19, align 8, !tbaa !44
  %.not60 = icmp eq i64 %24, 0
  br i1 %.not60, label %._crit_edge59, label %.lr.ph58.split

.lr.ph58.split:                                   ; preds = %.lr.ph58, %._crit_edge55
  %25 = phi i64 [ %32, %._crit_edge55 ], [ %17, %.lr.ph58 ]
  %26 = phi i64 [ %33, %._crit_edge55 ], [ %24, %.lr.ph58 ]
  %27 = phi i64 [ %34, %._crit_edge55 ], [ 1, %.lr.ph58 ]
  %.056 = phi i64 [ %35, %._crit_edge55 ], [ %18, %.lr.ph58 ]
  %28 = load ptr, ptr %3, align 8, !tbaa !75
  %29 = load i64, ptr %4, align 8, !tbaa !4
  %30 = mul nsw i64 %29, %.056
  %31 = getelementptr inbounds i32, ptr %28, i64 %30
  %.not61 = icmp eq i64 %27, 0
  br i1 %.not61, label %._crit_edge55, label %.lr.ph54

._crit_edge55.loopexit:                           ; preds = %._crit_edge
  %.pre66 = load i64, ptr %9, align 8, !tbaa !4
  br label %._crit_edge55

._crit_edge55:                                    ; preds = %._crit_edge55.loopexit, %.lr.ph58.split
  %32 = phi i64 [ %.pre66, %._crit_edge55.loopexit ], [ %25, %.lr.ph58.split ]
  %33 = phi i64 [ %50, %._crit_edge55.loopexit ], [ %26, %.lr.ph58.split ]
  %34 = phi i64 [ %50, %._crit_edge55.loopexit ], [ 0, %.lr.ph58.split ]
  %35 = add nuw i64 %.056, 1
  %36 = add i64 %32, 1
  %37 = icmp ult i64 %35, %36
  br i1 %37, label %.lr.ph58.split, label %._crit_edge59, !llvm.loop !94

.lr.ph54:                                         ; preds = %.lr.ph58.split, %._crit_edge
  %38 = phi i64 [ %50, %._crit_edge ], [ %26, %.lr.ph58.split ]
  %.04252 = phi i64 [ %51, %._crit_edge ], [ 0, %.lr.ph58.split ]
  %.04451 = phi i64 [ %54, %._crit_edge ], [ 0, %.lr.ph58.split ]
  %.04550 = phi i64 [ %55, %._crit_edge ], [ 0, %.lr.ph58.split ]
  %39 = load ptr, ptr %20, align 8, !tbaa !54
  %40 = getelementptr inbounds nuw ptr, ptr %39, i64 %.04550
  %41 = load ptr, ptr %40, align 8, !tbaa !55
  %42 = load ptr, ptr %6, align 8, !tbaa !8
  %43 = load i64, ptr %21, align 8, !tbaa !57
  %44 = mul i64 %43, %.056
  %45 = getelementptr inbounds nuw float, ptr %42, i64 %44
  %46 = getelementptr inbounds nuw float, ptr %45, i64 %.04451
  %47 = getelementptr inbounds nuw i8, ptr %41, i64 24
  %48 = load i64, ptr %47, align 8, !tbaa !66
  %.not62 = icmp eq i64 %48, 0
  br i1 %.not62, label %._crit_edge, label %.lr.ph

.lr.ph:                                           ; preds = %.lr.ph54
  %49 = getelementptr inbounds nuw i8, ptr %41, i64 8
  br label %57

._crit_edge.loopexit:                             ; preds = %74
  %.pre = load i64, ptr %19, align 8, !tbaa !44
  br label %._crit_edge

._crit_edge:                                      ; preds = %._crit_edge.loopexit, %.lr.ph54
  %50 = phi i64 [ %38, %.lr.ph54 ], [ %.pre, %._crit_edge.loopexit ]
  %.lcssa = phi i64 [ 0, %.lr.ph54 ], [ %75, %._crit_edge.loopexit ]
  %51 = add i64 %.lcssa, %.04252
  %52 = getelementptr inbounds nuw i8, ptr %41, i64 8
  %53 = load i64, ptr %52, align 8, !tbaa !57
  %54 = add i64 %53, %.04451
  %55 = add nuw i64 %.04550, 1
  %56 = icmp ult i64 %55, %50
  br i1 %56, label %.lr.ph54, label %._crit_edge55.loopexit, !llvm.loop !96

57:                                               ; preds = %.lr.ph, %74
  %indvars.iv = phi i64 [ 0, %.lr.ph ], [ %indvars.iv.next, %74 ]
  %58 = add i64 %indvars.iv, %.04252
  %59 = getelementptr inbounds nuw i32, ptr %31, i64 %58
  %60 = load i32, ptr %59, align 4, !tbaa !60
  %61 = load ptr, ptr %22, align 8, !tbaa !53
  %62 = load i64, ptr %49, align 8, !tbaa !57
  %63 = load ptr, ptr %23, align 8, !tbaa !84
  %64 = getelementptr inbounds nuw i64, ptr %63, i64 %58
  %65 = load i64, ptr %64, align 8, !tbaa !4
  %66 = sext i32 %60 to i64
  %67 = add i64 %65, %66
  %68 = mul i64 %67, %62
  %69 = getelementptr inbounds nuw float, ptr %61, i64 %68
  %70 = icmp eq i64 %indvars.iv, 0
  br i1 %70, label %71, label %73

71:                                               ; preds = %57
  %72 = shl i64 %62, 2
  call void @llvm.memcpy.p0.p0.i64(ptr align 4 %46, ptr align 4 %69, i64 %72, i1 false)
  br label %74

73:                                               ; preds = %57
  invoke void @_ZN5faiss8fvec_addEmPKfS1_Pf(i64 noundef %62, ptr noundef %46, ptr noundef %69, ptr noundef %46)
          to label %74 unwind label %78

74:                                               ; preds = %73, %71
  %indvars.iv.next = add nuw nsw i64 %indvars.iv, 1
  %75 = load i64, ptr %47, align 8, !tbaa !66
  %76 = icmp ugt i64 %75, %indvars.iv.next
  br i1 %76, label %57, label %._crit_edge.loopexit, !llvm.loop !97

._crit_edge59:                                    ; preds = %._crit_edge55, %.lr.ph58, %13
  call void @__kmpc_for_static_fini(ptr nonnull @1, i32 %15)
  call void @llvm.lifetime.end.p0(i64 4, ptr nonnull %11) #18
  call void @llvm.lifetime.end.p0(i64 8, ptr nonnull %10) #18
  call void @llvm.lifetime.end.p0(i64 8, ptr nonnull %9) #18
  call void @llvm.lifetime.end.p0(i64 8, ptr nonnull %8) #18
  br label %77

77:                                               ; preds = %._crit_edge59, %7
  ret void

78:                                               ; preds = %73
  %79 = landingpad { ptr, i32 }
          catch ptr null
  %80 = extractvalue { ptr, i32 } %79, 0
  call void @__clang_call_terminate(ptr %80) #24
  unreachable
}